target datalayout = "e-m:e-p270:32:32-p271:32:32-p272:64:64-i64:64-i128:128-f80:128-n8:16:32:64-S128"
target triple = "x86_64-pc-linux-gnu"

%struct.gmx_ana_selvalue_t = type { i32, i32, %union.anon, i32 }
%union.anon = type { ptr }
%struct.t_methoddata_pos = type { ptr, %struct.gmx_ana_index_t, ptr, i8, ptr, i32 }
%struct.gmx_ana_index_t = type { i32, ptr, i32 }
%"struct.gmx::SelMethodEvalContext" = type { ptr, ptr, ptr }

; Function Attrs: mustprogress uwtable
define internal void @_ZL12evaluate_posRKN3gmx20SelMethodEvalContextEP15gmx_ana_index_tP18gmx_ana_selvalue_tPv(ptr noundef nonnull align 8 dereferenceable(24) %0, ptr noundef %1, ptr noundef %2, ptr noundef %3) #0 {
  %5 = alloca ptr, align 8
  %6 = alloca ptr, align 8
  %7 = alloca ptr, align 8
  %8 = alloca ptr, align 8
  %9 = alloca ptr, align 8
  store ptr %0, ptr %5, align 8, !tbaa !34
  store ptr %1, ptr %6, align 8, !tbaa !36
  store ptr %2, ptr %7, align 8, !tbaa !32
  store ptr %3, ptr %8, align 8, !tbaa !11
  call void @llvm.lifetime.start.p0(i64 8, ptr %9) #6
  %10 = load ptr, ptr %8, align 8, !tbaa !11
  store ptr %10, ptr %9, align 8, !tbaa !11
  %11 = load ptr, ptr %9, align 8, !tbaa !11
  %12 = getelementptr inbounds nuw %struct.t_methoddata_pos, ptr %11, i32 0, i32 2
  %13 = load ptr, ptr %12, align 8, !tbaa !13
  %14 = load ptr, ptr %7, align 8, !tbaa !32
  %15 = getelementptr inbounds nuw %struct.gmx_ana_selvalue_t, ptr %14, i32 0, i32 2
  %16 = load ptr, ptr %15, align 8, !tbaa !12
  %17 = load ptr, ptr %9, align 8, !tbaa !11
  %18 = getelementptr inbounds nuw %struct.t_methoddata_pos, ptr %17, i32 0, i32 1
  %19 = load ptr, ptr %5, align 8, !tbaa !34
  %20 = getelementptr inbounds nuw %"struct.gmx::SelMethodEvalContext", ptr %19, i32 0, i32 1
  %21 = load ptr, ptr %20, align 8, !tbaa !38
  %22 = load ptr, ptr %5, align 8, !tbaa !34
  %23 = getelementptr inbounds nuw %"struct.gmx::SelMethodEvalContext", ptr %22, i32 0, i32 2
  %24 = load ptr, ptr %23, align 8, !tbaa !42
  call void @_Z22gmx_ana_poscalc_updateP17gmx_ana_poscalc_tP13gmx_ana_pos_tP15gmx_ana_index_tP10t_trxframePK5t_pbc(ptr noundef %13, ptr noundef %16, ptr noundef %18, ptr noundef %21, ptr noundef %24)
  call void @llvm.lifetime.end.p0(i64 8, ptr %9) #6
  ret void
}