; Function Attrs: mustprogress uwtable
define internal void @_ZL12evaluate_posRKN3gmx20SelMethodEvalContextEP15gmx_ana_index_tP18gmx_ana_selvalue_tPv(ptr noundef nonnull readonly align 8 captures(none) dereferenceable(24) %0, ptr readnone captures(none) %1, ptr noundef readonly captures(none) %2, ptr noundef %3) #0 {
  %5 = getelementptr inbounds nuw i8, ptr %3, i64 32
  %6 = load ptr, ptr %5, align 8, !tbaa !7
  %7 = getelementptr inbounds nuw i8, ptr %2, i64 8
  %8 = load ptr, ptr %7, align 8, !tbaa !4
  %9 = getelementptr inbounds nuw i8, ptr %3, i64 8
  %10 = getelementptr inbounds nuw i8, ptr %0, i64 8
  %11 = load ptr, ptr %10, align 8, !tbaa !25
  %12 = getelementptr inbounds nuw i8, ptr %0, i64 16
  %13 = load ptr, ptr %12, align 8, !tbaa !30
  tail call void @_Z22gmx_ana_poscalc_updateP17gmx_ana_poscalc_tP13gmx_ana_pos_tP15gmx_ana_index_tP10t_trxframePK5t_pbc(ptr noundef %6, ptr noundef %8, ptr noundef nonnull %9, ptr noundef %11, ptr noundef %13)
  ret void
}